target datalayout = "e-m:e-p270:32:32-p271:32:32-p272:64:64-i64:64-i128:128-f80:128-n8:16:32:64-S128"
target triple = "x86_64-pc-linux-gnu"

%struct._cmstransform_struct = type { i32, i32, ptr, ptr, ptr, ptr, ptr, %struct._cmsCACHE, ptr, ptr, ptr, ptr, i32, i32, %struct.cmsCIEXYZ, %struct.cmsCIEXYZ, ptr, i32, double, i32, ptr, ptr, ptr, ptr, ptr, i32, i32 }
%struct._cmsCACHE = type { [16 x i16], [16 x i16] }
%struct.cmsCIEXYZ = type { double, double, double }
%struct.cmsStride = type { i32, i32, i32, i32 }

; Function Attrs: nounwind uwtable
define internal i32 @PixelSize(i32 noundef %0) #0 {
  %2 = alloca i32, align 4
  %3 = alloca i32, align 4
  %4 = alloca i32, align 4
  store i32 %0, ptr %3, align 4
  %5 = load i32, ptr %3, align 4
  %6 = and i32 %5, 7
  store i32 %6, ptr %4, align 4
  %7 = load i32, ptr %4, align 4
  %8 = icmp eq i32 %7, 0
  br i1 %8, label %9, label %10

9:                                                ; preds = %1
  store i32 8, ptr %2, align 4
  br label %12

10:                                               ; preds = %1
  %11 = load i32, ptr %4, align 4
  store i32 %11, ptr %2, align 4
  br label %12

12:                                               ; preds = %10, %9
  %13 = load i32, ptr %2, align 4
  ret i32 %13
}

; Function Attrs: nounwind uwtable
define hidden void @cmsDoTransform(ptr noundef %0, ptr noundef %1, ptr noundef %2, i32 noundef %3) #0 {
  %5 = alloca ptr, align 8
  %6 = alloca ptr, align 8
  %7 = alloca ptr, align 8
  %8 = alloca i32, align 4
  %9 = alloca ptr, align 8
  %10 = alloca %struct.cmsStride, align 4
  store ptr %0, ptr %5, align 8
  store ptr %1, ptr %6, align 8
  store ptr %2, ptr %7, align 8
  store i32 %3, ptr %8, align 4
  %11 = load ptr, ptr %5, align 8
  store ptr %11, ptr %9, align 8
  %12 = getelementptr inbounds %struct.cmsStride, ptr %10, i32 0, i32 0
  store i32 0, ptr %12, align 4
  %13 = getelementptr inbounds %struct.cmsStride, ptr %10, i32 0, i32 1
  store i32 0, ptr %13, align 4
  %14 = load i32, ptr %8, align 4
  %15 = load ptr, ptr %9, align 8
  %16 = getelementptr inbounds %struct._cmstransform_struct, ptr %15, i32 0, i32 0
  %17 = load i32, ptr %16, align 8
  %18 = call i32 @PixelSize(i32 noundef %17)
  %19 = mul i32 %14, %18
  %20 = getelementptr inbounds %struct.cmsStride, ptr %10, i32 0, i32 2
  store i32 %19, ptr %20, align 4
  %21 = load i32, ptr %8, align 4
  %22 = load ptr, ptr %9, align 8
  %23 = getelementptr inbounds %struct._cmstransform_struct, ptr %22, i32 0, i32 1
  %24 = load i32, ptr %23, align 4
  %25 = call i32 @PixelSize(i32 noundef %24)
  %26 = mul i32 %21, %25
  %27 = getelementptr inbounds %struct.cmsStride, ptr %10, i32 0, i32 3
  store i32 %26, ptr %27, align 4
  %28 = load ptr, ptr %9, align 8
  %29 = getelementptr inbounds %struct._cmstransform_struct, ptr %28, i32 0, i32 2
  %30 = load ptr, ptr %29, align 8
  %31 = load ptr, ptr %9, align 8
  %32 = load ptr, ptr %6, align 8
  %33 = load ptr, ptr %7, align 8
  %34 = load i32, ptr %8, align 4
  call void %30(ptr noundef %31, ptr noundef %32, ptr noundef %33, i32 noundef %34, i32 noundef 1, ptr noundef %10)
  ret void
}