; Function Attrs: nounwind uwtable
define hidden void @cmsDoTransform(ptr noundef %0, ptr noundef %1, ptr noundef %2, i32 noundef %3) local_unnamed_addr #0 {
  %5 = alloca %struct.cmsStride, align 4
  store i32 0, ptr %5, align 4
  %6 = getelementptr inbounds i8, ptr %5, i64 4
  store i32 0, ptr %6, align 4
  %7 = load i32, ptr %0, align 8
  %8 = and i32 %7, 7
  %9 = icmp eq i32 %8, 0
  %..i = select i1 %9, i32 8, i32 %8
  %10 = mul i32 %..i, %3
  %11 = getelementptr inbounds i8, ptr %5, i64 8
  store i32 %10, ptr %11, align 4
  %12 = getelementptr inbounds i8, ptr %0, i64 4
  %13 = load i32, ptr %12, align 4
  %14 = and i32 %13, 7
  %15 = icmp eq i32 %14, 0
  %..i9 = select i1 %15, i32 8, i32 %14
  %16 = mul i32 %..i9, %3
  %17 = getelementptr inbounds i8, ptr %5, i64 12
  store i32 %16, ptr %17, align 4
  %18 = getelementptr inbounds i8, ptr %0, i64 8
  %19 = load ptr, ptr %18, align 8
  call void %19(ptr noundef nonnull %0, ptr noundef %1, ptr noundef %2, i32 noundef %3, i32 noundef 1, ptr noundef nonnull %5) #11
  ret void
}